; Function Attrs: mustprogress nounwind uwtable
define hidden void @_ZN19G1HeapRegionSetBase10verify_endEv(ptr nocapture noundef nonnull align 8 dereferenceable(33) %0) local_unnamed_addr #0 align 2 {
  %2 = getelementptr inbounds i8, ptr %0, i64 8
  %3 = load ptr, ptr %2, align 8
  %.not.i = icmp eq ptr %3, null
  br i1 %.not.i, label %_ZN19G1HeapRegionSetBase15check_mt_safetyEv.exit, label %4

4:                                                ; preds = %1
  %5 = load ptr, ptr %3, align 8
  %6 = load ptr, ptr %5, align 8
  tail call void %6(ptr noundef nonnull align 8 dereferenceable(8) %3) #12
  br label %_ZN19G1HeapRegionSetBase15check_mt_safetyEv.exit

_ZN19G1HeapRegionSetBase15check_mt_safetyEv.exit: ; preds = %1, %4
  %7 = getelementptr inbounds i8, ptr %0, i64 32
  store i8 0, ptr %7, align 8
  ret void
}